; Function Attrs: mustprogress uwtable
define hidden void @_ZNK4cvc58internal7printer4smt211Smt2Printer22toStreamCmdDeclareHeapERSoNS0_8TypeNodeES5_(ptr nonnull readnone align 8 captures(none) %0, ptr noundef nonnull align 8 dereferenceable(8) %1, ptr noundef readonly captures(none) %2, ptr noundef readonly captures(none) %3) unnamed_addr #3 align 2 personality ptr @__gxx_personality_v0 {
  %5 = alloca %"class.cvc5::internal::options::ioutils::Scope", align 8
  %6 = alloca %"class.cvc5::internal::options::ioutils::Scope", align 8
  %7 = tail call noundef nonnull align 8 dereferenceable(8) ptr @_ZSt16__ostream_insertIcSt11char_traitsIcEERSt13basic_ostreamIT_T0_ES6_PKS3_l(ptr noundef nonnull align 8 dereferenceable(8) %1, ptr noundef nonnull @.str.432, i64 noundef 15)
  call void @llvm.lifetime.start.p0(i64 48, ptr nonnull %6) #25
  %8 = load ptr, ptr %1, align 8, !tbaa !40
  %9 = getelementptr i8, ptr %8, i64 -24
  %10 = load i64, ptr %9, align 8
  %11 = getelementptr inbounds i8, ptr %1, i64 %10
  call void @_ZN4cvc58internal7options7ioutils5ScopeC1ERSt8ios_base(ptr noundef nonnull align 8 dereferenceable(46) %6, ptr noundef nonnull align 8 dereferenceable(216) %11)
  %12 = load ptr, ptr %1, align 8, !tbaa !40
  %13 = getelementptr i8, ptr %12, i64 -24
  %14 = load i64, ptr %13, align 8
  %15 = getelementptr inbounds i8, ptr %1, i64 %14
  invoke void @_ZN4cvc58internal7options7ioutils14applyDagThreshERSt8ios_basel(ptr noundef nonnull align 8 dereferenceable(216) %15, i64 noundef 0)
          to label %16 unwind label %18

16:                                               ; preds = %4
  %17 = load ptr, ptr %2, align 8, !tbaa !108
  invoke void @_ZNK4cvc58internal4expr9NodeValue8toStreamERSo(ptr noundef nonnull align 8 dereferenceable(24) %17, ptr noundef nonnull align 8 dereferenceable(8) %1)
          to label %_ZN4cvc58internallsERSoRKNS0_8TypeNodeE.exit unwind label %18

common.resume:                                    ; preds = %31, %18
  %common.resume.op = phi { ptr, i32 } [ %19, %18 ], [ %32, %31 ]
  resume { ptr, i32 } %common.resume.op

18:                                               ; preds = %16, %4
  %19 = landingpad { ptr, i32 }
          cleanup
  call void @_ZN4cvc58internal7options7ioutils5ScopeD1Ev(ptr noundef nonnull align 8 dereferenceable(46) %6) #25
  call void @llvm.lifetime.end.p0(i64 48, ptr nonnull %6) #25
  br label %common.resume

_ZN4cvc58internallsERSoRKNS0_8TypeNodeE.exit:     ; preds = %16
  call void @_ZN4cvc58internal7options7ioutils5ScopeD1Ev(ptr noundef nonnull align 8 dereferenceable(46) %6) #25
  call void @llvm.lifetime.end.p0(i64 48, ptr nonnull %6) #25
  %20 = call noundef nonnull align 8 dereferenceable(8) ptr @_ZSt16__ostream_insertIcSt11char_traitsIcEERSt13basic_ostreamIT_T0_ES6_PKS3_l(ptr noundef nonnull align 8 dereferenceable(8) %1, ptr noundef nonnull @.str.2, i64 noundef 1)
  call void @llvm.lifetime.start.p0(i64 48, ptr nonnull %5) #25
  %21 = load ptr, ptr %1, align 8, !tbaa !40
  %22 = getelementptr i8, ptr %21, i64 -24
  %23 = load i64, ptr %22, align 8
  %24 = getelementptr inbounds i8, ptr %1, i64 %23
  call void @_ZN4cvc58internal7options7ioutils5ScopeC1ERSt8ios_base(ptr noundef nonnull align 8 dereferenceable(46) %5, ptr noundef nonnull align 8 dereferenceable(216) %24)
  %25 = load ptr, ptr %1, align 8, !tbaa !40
  %26 = getelementptr i8, ptr %25, i64 -24
  %27 = load i64, ptr %26, align 8
  %28 = getelementptr inbounds i8, ptr %1, i64 %27
  invoke void @_ZN4cvc58internal7options7ioutils14applyDagThreshERSt8ios_basel(ptr noundef nonnull align 8 dereferenceable(216) %28, i64 noundef 0)
          to label %29 unwind label %31

29:                                               ; preds = %_ZN4cvc58internallsERSoRKNS0_8TypeNodeE.exit
  %30 = load ptr, ptr %3, align 8, !tbaa !108
  invoke void @_ZNK4cvc58internal4expr9NodeValue8toStreamERSo(ptr noundef nonnull align 8 dereferenceable(24) %30, ptr noundef nonnull align 8 dereferenceable(8) %1)
          to label %_ZN4cvc58internallsERSoRKNS0_8TypeNodeE.exit1 unwind label %31

31:                                               ; preds = %29, %_ZN4cvc58internallsERSoRKNS0_8TypeNodeE.exit
  %32 = landingpad { ptr, i32 }
          cleanup
  call void @_ZN4cvc58internal7options7ioutils5ScopeD1Ev(ptr noundef nonnull align 8 dereferenceable(46) %5) #25
  call void @llvm.lifetime.end.p0(i64 48, ptr nonnull %5) #25
  br label %common.resume

_ZN4cvc58internallsERSoRKNS0_8TypeNodeE.exit1:    ; preds = %29
  call void @_ZN4cvc58internal7options7ioutils5ScopeD1Ev(ptr noundef nonnull align 8 dereferenceable(46) %5) #25
  call void @llvm.lifetime.end.p0(i64 48, ptr nonnull %5) #25
  %33 = call noundef nonnull align 8 dereferenceable(8) ptr @_ZSt16__ostream_insertIcSt11char_traitsIcEERSt13basic_ostreamIT_T0_ES6_PKS3_l(ptr noundef nonnull align 8 dereferenceable(8) %1, ptr noundef nonnull @.str.62, i64 noundef 2)
  ret void
}